target datalayout = "e-m:e-p270:32:32-p271:32:32-p272:64:64-i64:64-i128:128-f80:128-n8:16:32:64-S128"
target triple = "x86_64-pc-linux-gnu"

%struct.AACArith = type { i16, i16, i16 }
%struct.GetBitContext = type { ptr, ptr, i32, i32, i32 }

; Function Attrs: alwaysinline nounwind willreturn memory(none) uwtable
define internal i32 @av_bswap32(i32 noundef %0) #5 {
  %2 = alloca i32, align 4
  store i32 %0, ptr %2, align 4, !tbaa !9
  %3 = load i32, ptr %2, align 4, !tbaa !9
  %4 = shl i32 %3, 8
  %5 = and i32 %4, 65280
  %6 = load i32, ptr %2, align 4, !tbaa !9
  %7 = lshr i32 %6, 8
  %8 = and i32 %7, 255
  %9 = or i32 %5, %8
  %10 = shl i32 %9, 16
  %11 = load i32, ptr %2, align 4, !tbaa !9
  %12 = lshr i32 %11, 16
  %13 = shl i32 %12, 8
  %14 = and i32 %13, 65280
  %15 = load i32, ptr %2, align 4, !tbaa !9
  %16 = lshr i32 %15, 16
  %17 = lshr i32 %16, 8
  %18 = and i32 %17, 255
  %19 = or i32 %14, %18
  %20 = or i32 %10, %19
  ret i32 %20
}

; Function Attrs: inlinehint nounwind uwtable
define internal i32 @get_bits(ptr noundef %0, i32 noundef %1) #4 {
  %3 = alloca ptr, align 8
  %4 = alloca i32, align 4
  %5 = alloca i32, align 4
  %6 = alloca i32, align 4
  %7 = alloca i32, align 4
  %8 = alloca i32, align 4
  store ptr %0, ptr %3, align 8, !tbaa !25
  store i32 %1, ptr %4, align 4, !tbaa !9
  call void @llvm.lifetime.start.p0(i64 4, ptr %5) #6
  call void @llvm.lifetime.start.p0(i64 4, ptr %6) #6
  %9 = load ptr, ptr %3, align 8, !tbaa !25
  %10 = getelementptr inbounds nuw %struct.GetBitContext, ptr %9, i32 0, i32 2
  %11 = load i32, ptr %10, align 8, !tbaa !31
  store i32 %11, ptr %6, align 4, !tbaa !9
  call void @llvm.lifetime.start.p0(i64 4, ptr %7) #6
  call void @llvm.lifetime.start.p0(i64 4, ptr %8) #6
  %12 = load ptr, ptr %3, align 8, !tbaa !25
  %13 = getelementptr inbounds nuw %struct.GetBitContext, ptr %12, i32 0, i32 4
  %14 = load i32, ptr %13, align 8, !tbaa !34
  store i32 %14, ptr %8, align 4, !tbaa !9
  %15 = load ptr, ptr %3, align 8, !tbaa !25
  %16 = getelementptr inbounds nuw %struct.GetBitContext, ptr %15, i32 0, i32 0
  %17 = load ptr, ptr %16, align 8, !tbaa !35
  %18 = load i32, ptr %6, align 4, !tbaa !9
  %19 = lshr i32 %18, 3
  %20 = zext i32 %19 to i64
  %21 = getelementptr inbounds nuw i8, ptr %17, i64 %20
  %22 = load i32, ptr %21, align 1, !tbaa !16
  %23 = call i32 @av_bswap32(i32 noundef %22) #7
  %24 = load i32, ptr %6, align 4, !tbaa !9
  %25 = and i32 %24, 7
  %26 = shl i32 %23, %25
  %27 = lshr i32 %26, 0
  store i32 %27, ptr %7, align 4, !tbaa !9
  %28 = load i32, ptr %7, align 4, !tbaa !9
  %29 = load i32, ptr %4, align 4, !tbaa !9
  %30 = sub nsw i32 32, %29
  %31 = lshr i32 %28, %30
  store i32 %31, ptr %5, align 4, !tbaa !9
  %32 = load i32, ptr %8, align 4, !tbaa !9
  %33 = load i32, ptr %6, align 4, !tbaa !9
  %34 = load i32, ptr %4, align 4, !tbaa !9
  %35 = add i32 %33, %34
  %36 = icmp ugt i32 %32, %35
  br i1 %36, label %37, label %41

37:                                               ; preds = %2
  %38 = load i32, ptr %6, align 4, !tbaa !9
  %39 = load i32, ptr %4, align 4, !tbaa !9
  %40 = add i32 %38, %39
  br label %43

41:                                               ; preds = %2
  %42 = load i32, ptr %8, align 4, !tbaa !9
  br label %43

43:                                               ; preds = %41, %37
  %44 = phi i32 [ %40, %37 ], [ %42, %41 ]
  store i32 %44, ptr %6, align 4, !tbaa !9
  %45 = load i32, ptr %6, align 4, !tbaa !9
  %46 = load ptr, ptr %3, align 8, !tbaa !25
  %47 = getelementptr inbounds nuw %struct.GetBitContext, ptr %46, i32 0, i32 2
  store i32 %45, ptr %47, align 8, !tbaa !31
  %48 = load i32, ptr %5, align 4, !tbaa !9
  call void @llvm.lifetime.end.p0(i64 4, ptr %8) #6
  call void @llvm.lifetime.end.p0(i64 4, ptr %7) #6
  call void @llvm.lifetime.end.p0(i64 4, ptr %6) #6
  call void @llvm.lifetime.end.p0(i64 4, ptr %5) #6
  ret i32 %48
}

; Function Attrs: nounwind uwtable
define void @ff_aac_ac_init(ptr noundef %0, ptr noundef %1) #0 {
  %3 = alloca ptr, align 8
  %4 = alloca ptr, align 8
  store ptr %0, ptr %3, align 8, !tbaa !23
  store ptr %1, ptr %4, align 8, !tbaa !25
  %5 = load ptr, ptr %3, align 8, !tbaa !23
  %6 = getelementptr inbounds nuw %struct.AACArith, ptr %5, i32 0, i32 0
  store i16 0, ptr %6, align 2, !tbaa !27
  %7 = load ptr, ptr %3, align 8, !tbaa !23
  %8 = getelementptr inbounds nuw %struct.AACArith, ptr %7, i32 0, i32 1
  store i16 -1, ptr %8, align 2, !tbaa !29
  %9 = load ptr, ptr %4, align 8, !tbaa !25
  %10 = call i32 @get_bits(ptr noundef %9, i32 noundef 16)
  %11 = trunc i32 %10 to i16
  %12 = load ptr, ptr %3, align 8, !tbaa !23
  %13 = getelementptr inbounds nuw %struct.AACArith, ptr %12, i32 0, i32 2
  store i16 %11, ptr %13, align 2, !tbaa !30
  ret void
}