; Function Attrs: mustprogress nofree norecurse nosync nounwind willreturn memory(read, argmem: readwrite, inaccessiblemem: none) uwtable
define void @ff_aac_ac_init(ptr noundef writeonly captures(none) initializes((0, 6)) %0, ptr noundef captures(none) %1) local_unnamed_addr #6 {
  store i16 0, ptr %0, align 2, !tbaa !16
  %3 = getelementptr inbounds nuw i8, ptr %0, i64 2
  store i16 -1, ptr %3, align 2, !tbaa !18
  %4 = getelementptr inbounds nuw i8, ptr %1, i64 16
  %5 = load i32, ptr %4, align 8, !tbaa !19
  %6 = getelementptr inbounds nuw i8, ptr %1, i64 24
  %7 = load i32, ptr %6, align 8, !tbaa !23
  %8 = load ptr, ptr %1, align 8, !tbaa !24
  %9 = lshr i32 %5, 3
  %10 = zext nneg i32 %9 to i64
  %11 = getelementptr inbounds nuw i8, ptr %8, i64 %10
  %12 = load i32, ptr %11, align 1, !tbaa !10
  %13 = tail call i32 @llvm.bswap.i32(i32 %12)
  %14 = and i32 %5, 7
  %15 = shl i32 %13, %14
  %16 = lshr i32 %15, 16
  %17 = add i32 %5, 16
  %18 = tail call i32 @llvm.umin.i32(i32 %7, i32 %17)
  store i32 %18, ptr %4, align 8, !tbaa !19
  %19 = trunc nuw i32 %16 to i16
  %20 = getelementptr inbounds nuw i8, ptr %0, i64 4
  store i16 %19, ptr %20, align 2, !tbaa !25
  ret void
}